; ModuleID = '21/293.c'
source_filename = "21/293.c"
target datalayout = "e-m:e-p270:32:32-p271:32:32-p272:64:64-i64:64-f80:128-n8:16:32:64-S128"
target triple = "x86_64-pc-linux-gnu"

@.str = private unnamed_addr constant [3 x i8] c"%d\00", align 1
@.str.1 = private unnamed_addr constant [4 x i8] c",%d\00", align 1

; Function Attrs: noinline nounwind uwtable
define dso_local void @main() #0 {
  %1 = alloca i32, align 4
  %2 = alloca [300 x i32], align 16
  %3 = alloca i32, align 4
  %4 = alloca i32, align 4
  %5 = alloca i32, align 4
  %6 = alloca i32, align 4
  %7 = alloca i32, align 4
  %8 = alloca i32, align 4
  %9 = alloca i32, align 4
  %10 = alloca i32, align 4
  %11 = alloca [300 x i32], align 16
  store i32 0, i32* %3, align 4
  %12 = call i32 (i8*, ...) @__isoc99_scanf(i8* getelementptr inbounds ([3 x i8], [3 x i8]* @.str, i64 0, i64 0), i32* %1)
  store i32 0, i32* %4, align 4
  br label %13

13:                                               ; preds = %28, %0
  %14 = load i32, i32* %4, align 4
  %15 = load i32, i32* %1, align 4
  %16 = icmp slt i32 %14, %15
  br i1 %16, label %17, label %31

17:                                               ; preds = %13
  %18 = load i32, i32* %4, align 4
  %19 = sext i32 %18 to i64
  %20 = getelementptr inbounds [300 x i32], [300 x i32]* %2, i64 0, i64 %19
  %21 = call i32 (i8*, ...) @__isoc99_scanf(i8* getelementptr inbounds ([3 x i8], [3 x i8]* @.str, i64 0, i64 0), i32* %20)
  %22 = load i32, i32* %3, align 4
  %23 = load i32, i32* %4, align 4
  %24 = sext i32 %23 to i64
  %25 = getelementptr inbounds [300 x i32], [300 x i32]* %2, i64 0, i64 %24
  %26 = load i32, i32* %25, align 4
  %27 = add nsw i32 %22, %26
  store i32 %27, i32* %3, align 4
  br label %28

28:                                               ; preds = %17
  %29 = load i32, i32* %4, align 4
  %30 = add nsw i32 %29, 1
  store i32 %30, i32* %4, align 4
  br label %13

31:                                               ; preds = %13
  store i32 0, i32* %5, align 4
  br label %32

32:                                               ; preds = %48, %31
  %33 = load i32, i32* %5, align 4
  %34 = load i32, i32* %1, align 4
  %35 = icmp slt i32 %33, %34
  br i1 %35, label %36, label %51

36:                                               ; preds = %32
  %37 = load i32, i32* %1, align 4
  %38 = load i32, i32* %5, align 4
  %39 = sext i32 %38 to i64
  %40 = getelementptr inbounds [300 x i32], [300 x i32]* %2, i64 0, i64 %39
  %41 = load i32, i32* %40, align 4
  %42 = mul nsw i32 %37, %41
  %43 = load i32, i32* %3, align 4
  %44 = sub nsw i32 %42, %43
  %45 = load i32, i32* %5, align 4
  %46 = sext i32 %45 to i64
  %47 = getelementptr inbounds [300 x i32], [300 x i32]* %11, i64 0, i64 %46
  store i32 %44, i32* %47, align 4
  br label %48

48:                                               ; preds = %36
  %49 = load i32, i32* %5, align 4
  %50 = add nsw i32 %49, 1
  store i32 %50, i32* %5, align 4
  br label %32

51:                                               ; preds = %32
  store i32 0, i32* %6, align 4
  br label %52

52:                                               ; preds = %117, %51
  %53 = load i32, i32* %6, align 4
  %54 = load i32, i32* %1, align 4
  %55 = icmp slt i32 %53, %54
  br i1 %55, label %56, label %120

56:                                               ; preds = %52
  store i32 0, i32* %7, align 4
  br label %57

57:                                               ; preds = %113, %56
  %58 = load i32, i32* %7, align 4
  %59 = load i32, i32* %1, align 4
  %60 = load i32, i32* %6, align 4
  %61 = sub nsw i32 %59, %60
  %62 = sub nsw i32 %61, 1
  %63 = icmp slt i32 %58, %62
  br i1 %63, label %64, label %116

64:                                               ; preds = %57
  %65 = load i32, i32* %7, align 4
  %66 = sext i32 %65 to i64
  %67 = getelementptr inbounds [300 x i32], [300 x i32]* %11, i64 0, i64 %66
  %68 = load i32, i32* %67, align 4
  %69 = call i32 @abs(i32 %68) #3
  %70 = load i32, i32* %7, align 4
  %71 = add nsw i32 %70, 1
  %72 = sext i32 %71 to i64
  %73 = getelementptr inbounds [300 x i32], [300 x i32]* %11, i64 0, i64 %72
  %74 = load i32, i32* %73, align 4
  %75 = call i32 @abs(i32 %74) #3
  %76 = icmp slt i32 %69, %75
  br i1 %76, label %77, label %112

77:                                               ; preds = %64
  %78 = load i32, i32* %7, align 4
  %79 = sext i32 %78 to i64
  %80 = getelementptr inbounds [300 x i32], [300 x i32]* %11, i64 0, i64 %79
  %81 = load i32, i32* %80, align 4
  store i32 %81, i32* %10, align 4
  %82 = load i32, i32* %7, align 4
  %83 = add nsw i32 %82, 1
  %84 = sext i32 %83 to i64
  %85 = getelementptr inbounds [300 x i32], [300 x i32]* %11, i64 0, i64 %84
  %86 = load i32, i32* %85, align 4
  %87 = load i32, i32* %7, align 4
  %88 = sext i32 %87 to i64
  %89 = getelementptr inbounds [300 x i32], [300 x i32]* %11, i64 0, i64 %88
  store i32 %86, i32* %89, align 4
  %90 = load i32, i32* %10, align 4
  %91 = load i32, i32* %7, align 4
  %92 = add nsw i32 %91, 1
  %93 = sext i32 %92 to i64
  %94 = getelementptr inbounds [300 x i32], [300 x i32]* %11, i64 0, i64 %93
  store i32 %90, i32* %94, align 4
  %95 = load i32, i32* %7, align 4
  %96 = sext i32 %95 to i64
  %97 = getelementptr inbounds [300 x i32], [300 x i32]* %2, i64 0, i64 %96
  %98 = load i32, i32* %97, align 4
  store i32 %98, i32* %9, align 4
  %99 = load i32, i32* %7, align 4
  %100 = add nsw i32 %99, 1
  %101 = sext i32 %100 to i64
  %102 = getelementptr inbounds [300 x i32], [300 x i32]* %2, i64 0, i64 %101
  %103 = load i32, i32* %102, align 4
  %104 = load i32, i32* %7, align 4
  %105 = sext i32 %104 to i64
  %106 = getelementptr inbounds [300 x i32], [300 x i32]* %2, i64 0, i64 %105
  store i32 %103, i32* %106, align 4
  %107 = load i32, i32* %9, align 4
  %108 = load i32, i32* %7, align 4
  %109 = add nsw i32 %108, 1
  %110 = sext i32 %109 to i64
  %111 = getelementptr inbounds [300 x i32], [300 x i32]* %2, i64 0, i64 %110
  store i32 %107, i32* %111, align 4
  br label %112

112:                                              ; preds = %77, %64
  br label %113

113:                                              ; preds = %112
  %114 = load i32, i32* %7, align 4
  %115 = add nsw i32 %114, 1
  store i32 %115, i32* %7, align 4
  br label %57

116:                                              ; preds = %57
  br label %117

117:                                              ; preds = %116
  %118 = load i32, i32* %6, align 4
  %119 = add nsw i32 %118, 1
  store i32 %119, i32* %6, align 4
  br label %52

120:                                              ; preds = %52
  %121 = getelementptr inbounds [300 x i32], [300 x i32]* %2, i64 0, i64 0
  %122 = load i32, i32* %121, align 16
  %123 = call i32 (i8*, ...) @printf(i8* getelementptr inbounds ([3 x i8], [3 x i8]* @.str, i64 0, i64 0), i32 %122)
  store i32 1, i32* %8, align 4
  br label %124

124:                                              ; preds = %145, %120
  %125 = load i32, i32* %8, align 4
  %126 = load i32, i32* %1, align 4
  %127 = icmp slt i32 %125, %126
  br i1 %127, label %128, label %148

128:                                              ; preds = %124
  %129 = load i32, i32* %8, align 4
  %130 = sext i32 %129 to i64
  %131 = getelementptr inbounds [300 x i32], [300 x i32]* %11, i64 0, i64 %130
  %132 = load i32, i32* %131, align 4
  %133 = call i32 @abs(i32 %132) #3
  %134 = getelementptr inbounds [300 x i32], [300 x i32]* %11, i64 0, i64 0
  %135 = load i32, i32* %134, align 16
  %136 = call i32 @abs(i32 %135) #3
  %137 = icmp eq i32 %133, %136
  br i1 %137, label %138, label %144

138:                                              ; preds = %128
  %139 = load i32, i32* %8, align 4
  %140 = sext i32 %139 to i64
  %141 = getelementptr inbounds [300 x i32], [300 x i32]* %2, i64 0, i64 %140
  %142 = load i32, i32* %141, align 4
  %143 = call i32 (i8*, ...) @printf(i8* getelementptr inbounds ([4 x i8], [4 x i8]* @.str.1, i64 0, i64 0), i32 %142)
  br label %144

144:                                              ; preds = %138, %128
  br label %145

145:                                              ; preds = %144
  %146 = load i32, i32* %8, align 4
  %147 = add nsw i32 %146, 1
  store i32 %147, i32* %8, align 4
  br label %124

148:                                              ; preds = %124
  ret void
}

declare dso_local i32 @__isoc99_scanf(i8*, ...) #1

; Function Attrs: nounwind readnone
declare dso_local i32 @abs(i32) #2

declare dso_local i32 @printf(i8*, ...) #1


!llvm.module.flags = !{!0}
!llvm.ident = !{!1}

!0 = !{i32 1, !"wchar_size", i32 4}
!1 = !{!"clang version 10.0.0-4ubuntu1 "}
